target datalayout = "e-m:e-p270:32:32-p271:32:32-p272:64:64-i64:64-i128:128-f80:128-n8:16:32:64-S128"
target triple = "x86_64-pc-linux-gnu"

%struct.ossl_hmacmd_pair = type { i32, i32 }

; Function Attrs: nounwind uwtable
define i32 @ossl_md2hmacnid(i32 noundef %0) #0 {
  %2 = alloca i32, align 4
  %3 = alloca i32, align 4
  %4 = alloca i64, align 8
  store i32 %0, ptr %2, align 4, !tbaa !8
  call void @llvm.lifetime.start.p0(i64 4, ptr %3) #8
  store i32 0, ptr %3, align 4, !tbaa !8
  call void @llvm.lifetime.start.p0(i64 8, ptr %4) #8
  store i64 0, ptr %4, align 8, !tbaa !62
  br label %5

5:                                                ; preds = %21, %1
  %6 = load i64, ptr %4, align 8, !tbaa !62
  %7 = icmp ult i64 %6, 15
  br i1 %7, label %8, label %24

8:                                                ; preds = %5
  %9 = load i64, ptr %4, align 8, !tbaa !62
  %10 = getelementptr inbounds nuw [15 x %struct.ossl_hmacmd_pair], ptr @ossl_hmacmd_pairs, i64 0, i64 %9
  %11 = getelementptr inbounds nuw %struct.ossl_hmacmd_pair, ptr %10, i32 0, i32 0
  %12 = load i32, ptr %11, align 8, !tbaa !106
  %13 = load i32, ptr %2, align 4, !tbaa !8
  %14 = icmp eq i32 %12, %13
  br i1 %14, label %15, label %20

15:                                               ; preds = %8
  %16 = load i64, ptr %4, align 8, !tbaa !62
  %17 = getelementptr inbounds nuw [15 x %struct.ossl_hmacmd_pair], ptr @ossl_hmacmd_pairs, i64 0, i64 %16
  %18 = getelementptr inbounds nuw %struct.ossl_hmacmd_pair, ptr %17, i32 0, i32 1
  %19 = load i32, ptr %18, align 4, !tbaa !104
  store i32 %19, ptr %3, align 4, !tbaa !8
  br label %24

20:                                               ; preds = %8
  br label %21

21:                                               ; preds = %20
  %22 = load i64, ptr %4, align 8, !tbaa !62
  %23 = add i64 %22, 1
  store i64 %23, ptr %4, align 8, !tbaa !62
  br label %5, !llvm.loop !108

24:                                               ; preds = %15, %5
  %25 = load i32, ptr %3, align 4, !tbaa !8
  call void @llvm.lifetime.end.p0(i64 8, ptr %4) #8
  call void @llvm.lifetime.end.p0(i64 4, ptr %3) #8
  ret i32 %25
}